target datalayout = "e-m:e-p270:32:32-p271:32:32-p272:64:64-i64:64-i128:128-f80:128-n8:16:32:64-S128"
target triple = "x86_64-pc-linux-gnu"

%"class.std::__cxx11::basic_string" = type { %"struct.std::__cxx11::basic_string<char>::_Alloc_hider", i64, %union.anon }
%"struct.std::__cxx11::basic_string<char>::_Alloc_hider" = type { ptr }
%union.anon = type { i64, [8 x i8] }
%"struct.std::_Vector_base.16" = type { %"struct.std::_Vector_base<long long, std::allocator<long long>>::_Vector_impl" }
%"struct.std::_Vector_base<long long, std::allocator<long long>>::_Vector_impl" = type { %"struct.std::_Vector_base<long long, std::allocator<long long>>::_Vector_impl_data" }
%"struct.std::_Vector_base<long long, std::allocator<long long>>::_Vector_impl_data" = type { ptr, ptr, ptr }

@.str.9 = private unnamed_addr constant [2 x i8] c"\0A\00", align 1

; Function Attrs: mustprogress uwtable
define linkonce_odr hidden noundef i64 @_ZNK6casadi6MXNode3nnzEx(ptr noundef nonnull align 8 dereferenceable(64) %0, i64 noundef %1) #4 comdat align 2 {
  %3 = alloca ptr, align 8
  %4 = alloca i64, align 8
  store ptr %0, ptr %3, align 8
  store i64 %1, ptr %4, align 8
  %5 = load ptr, ptr %3, align 8
  %6 = load i64, ptr %4, align 8
  %7 = load ptr, ptr %5, align 8
  %8 = getelementptr inbounds ptr, ptr %7, i64 44
  %9 = load ptr, ptr %8, align 8
  %10 = call noundef nonnull align 8 dereferenceable(8) ptr %9(ptr noundef nonnull align 8 dereferenceable(64) %5, i64 noundef %6)
  %11 = call noundef i64 @_ZNK6casadi8Sparsity3nnzEv(ptr noundef nonnull align 8 dereferenceable(8) %10)
  ret i64 %11
}

; Function Attrs: mustprogress nounwind uwtable
define linkonce_odr hidden noundef nonnull align 8 dereferenceable(8) ptr @_ZNKSt6vectorIxSaIxEEixEm(ptr noundef nonnull align 8 dereferenceable(24) %0, i64 noundef %1) #5 comdat align 2 {
  %3 = alloca ptr, align 8
  %4 = alloca i64, align 8
  store ptr %0, ptr %3, align 8
  store i64 %1, ptr %4, align 8
  %5 = load ptr, ptr %3, align 8
  %6 = getelementptr inbounds %"struct.std::_Vector_base.16", ptr %5, i32 0, i32 0
  %7 = getelementptr inbounds %"struct.std::_Vector_base<long long, std::allocator<long long>>::_Vector_impl_data", ptr %6, i32 0, i32 0
  %8 = load ptr, ptr %7, align 8
  %9 = load i64, ptr %4, align 8
  %10 = getelementptr inbounds i64, ptr %8, i64 %9
  ret ptr %10
}

; Function Attrs: mustprogress uwtable
define void @_ZNK6casadi12SparsityCast8generateERNS_13CodeGeneratorERKSt6vectorIxSaIxEES7_(ptr noundef nonnull align 8 dereferenceable(64) %0, ptr noundef nonnull align 8 dereferenceable(3097) %1, ptr noundef nonnull align 8 dereferenceable(24) %2, ptr noundef nonnull align 8 dereferenceable(24) %3) unnamed_addr #4 align 2 personality ptr @__gxx_personality_v0 {
  %5 = alloca ptr, align 8
  %6 = alloca ptr, align 8
  %7 = alloca ptr, align 8
  %8 = alloca ptr, align 8
  %9 = alloca %"class.std::__cxx11::basic_string", align 8
  %10 = alloca %"class.std::__cxx11::basic_string", align 8
  %11 = alloca ptr, align 8
  %12 = alloca i32, align 4
  %13 = alloca %"class.std::__cxx11::basic_string", align 8
  store ptr %0, ptr %5, align 8
  store ptr %1, ptr %6, align 8
  store ptr %2, ptr %7, align 8
  store ptr %3, ptr %8, align 8
  %14 = load ptr, ptr %5, align 8
  %15 = load ptr, ptr %7, align 8
  %16 = call noundef nonnull align 8 dereferenceable(8) ptr @_ZNKSt6vectorIxSaIxEEixEm(ptr noundef nonnull align 8 dereferenceable(24) %15, i64 noundef 0) #3
  %17 = load i64, ptr %16, align 8
  %18 = load ptr, ptr %8, align 8
  %19 = call noundef nonnull align 8 dereferenceable(8) ptr @_ZNKSt6vectorIxSaIxEEixEm(ptr noundef nonnull align 8 dereferenceable(24) %18, i64 noundef 0) #3
  %20 = load i64, ptr %19, align 8
  %21 = icmp eq i64 %17, %20
  br i1 %21, label %22, label %23

22:                                               ; preds = %4
  br label %45

23:                                               ; preds = %4
  %24 = load ptr, ptr %6, align 8
  %25 = load ptr, ptr %6, align 8
  %26 = load ptr, ptr %6, align 8
  %27 = load ptr, ptr %7, align 8
  %28 = call noundef nonnull align 8 dereferenceable(8) ptr @_ZNKSt6vectorIxSaIxEEixEm(ptr noundef nonnull align 8 dereferenceable(24) %27, i64 noundef 0) #3
  %29 = load i64, ptr %28, align 8
  %30 = call noundef i64 @_ZNK6casadi6MXNode3nnzEx(ptr noundef nonnull align 8 dereferenceable(64) %14, i64 noundef 0)
  call void @_ZNK6casadi13CodeGenerator4workB5cxx11Exx(ptr dead_on_unwind writable sret(%"class.std::__cxx11::basic_string") align 8 %10, ptr noundef nonnull align 8 dereferenceable(3097) %26, i64 noundef %29, i64 noundef %30)
  %31 = invoke noundef i64 @_ZNK6casadi6MXNode3nnzEx(ptr noundef nonnull align 8 dereferenceable(64) %14, i64 noundef 0)
          to label %32 unwind label %46

32:                                               ; preds = %23
  %33 = load ptr, ptr %6, align 8
  %34 = load ptr, ptr %8, align 8
  %35 = call noundef nonnull align 8 dereferenceable(8) ptr @_ZNKSt6vectorIxSaIxEEixEm(ptr noundef nonnull align 8 dereferenceable(24) %34, i64 noundef 0) #3
  %36 = load i64, ptr %35, align 8
  %37 = invoke noundef i64 @_ZNK6casadi6MXNode3nnzEx(ptr noundef nonnull align 8 dereferenceable(64) %14, i64 noundef 0)
          to label %38 unwind label %46

38:                                               ; preds = %32
  invoke void @_ZNK6casadi13CodeGenerator4workB5cxx11Exx(ptr dead_on_unwind writable sret(%"class.std::__cxx11::basic_string") align 8 %13, ptr noundef nonnull align 8 dereferenceable(3097) %33, i64 noundef %36, i64 noundef %37)
          to label %39 unwind label %46

39:                                               ; preds = %38
  invoke void @_ZN6casadi13CodeGenerator4copyERKNSt7__cxx1112basic_stringIcSt11char_traitsIcESaIcEEEmS8_(ptr dead_on_unwind writable sret(%"class.std::__cxx11::basic_string") align 8 %9, ptr noundef nonnull align 8 dereferenceable(3097) %25, ptr noundef nonnull align 8 dereferenceable(32) %10, i64 noundef %31, ptr noundef nonnull align 8 dereferenceable(32) %13)
          to label %40 unwind label %50

40:                                               ; preds = %39
  %41 = invoke noundef nonnull align 8 dereferenceable(3097) ptr @_ZN6casadi13CodeGeneratorlsERKNSt7__cxx1112basic_stringIcSt11char_traitsIcESaIcEEE(ptr noundef nonnull align 8 dereferenceable(3097) %24, ptr noundef nonnull align 8 dereferenceable(32) %9)
          to label %42 unwind label %54

42:                                               ; preds = %40
  %43 = invoke noundef nonnull align 8 dereferenceable(3097) ptr @_ZN6casadi13CodeGeneratorlsIPKcEERS0_T_(ptr noundef nonnull align 8 dereferenceable(3097) %41, ptr noundef @.str.9)
          to label %44 unwind label %54

44:                                               ; preds = %42
  call void @_ZNSt7__cxx1112basic_stringIcSt11char_traitsIcESaIcEED1Ev(ptr noundef nonnull align 8 dereferenceable(32) %9) #3
  call void @_ZNSt7__cxx1112basic_stringIcSt11char_traitsIcESaIcEED1Ev(ptr noundef nonnull align 8 dereferenceable(32) %13) #3
  call void @_ZNSt7__cxx1112basic_stringIcSt11char_traitsIcESaIcEED1Ev(ptr noundef nonnull align 8 dereferenceable(32) %10) #3
  br label %45

45:                                               ; preds = %44, %22
  ret void

46:                                               ; preds = %38, %32, %23
  %47 = landingpad { ptr, i32 }
          cleanup
  %48 = extractvalue { ptr, i32 } %47, 0
  store ptr %48, ptr %11, align 8
  %49 = extractvalue { ptr, i32 } %47, 1
  store i32 %49, ptr %12, align 4
  br label %59

50:                                               ; preds = %39
  %51 = landingpad { ptr, i32 }
          cleanup
  %52 = extractvalue { ptr, i32 } %51, 0
  store ptr %52, ptr %11, align 8
  %53 = extractvalue { ptr, i32 } %51, 1
  store i32 %53, ptr %12, align 4
  br label %58

54:                                               ; preds = %42, %40
  %55 = landingpad { ptr, i32 }
          cleanup
  %56 = extractvalue { ptr, i32 } %55, 0
  store ptr %56, ptr %11, align 8
  %57 = extractvalue { ptr, i32 } %55, 1
  store i32 %57, ptr %12, align 4
  call void @_ZNSt7__cxx1112basic_stringIcSt11char_traitsIcESaIcEED1Ev(ptr noundef nonnull align 8 dereferenceable(32) %9) #3
  br label %58

58:                                               ; preds = %54, %50
  call void @_ZNSt7__cxx1112basic_stringIcSt11char_traitsIcESaIcEED1Ev(ptr noundef nonnull align 8 dereferenceable(32) %13) #3
  br label %59

59:                                               ; preds = %58, %46
  call void @_ZNSt7__cxx1112basic_stringIcSt11char_traitsIcESaIcEED1Ev(ptr noundef nonnull align 8 dereferenceable(32) %10) #3
  br label %60

60:                                               ; preds = %59
  %61 = load ptr, ptr %11, align 8
  %62 = load i32, ptr %12, align 4
  %63 = insertvalue { ptr, i32 } poison, ptr %61, 0
  %64 = insertvalue { ptr, i32 } %63, i32 %62, 1
  resume { ptr, i32 } %64
}